; Function Attrs: mustprogress nounwind uwtable
define hidden void @_ZN12PhaseIterGVN21add_users_to_worklistEP4Node(ptr nocapture noundef nonnull readonly align 8 dereferenceable(2416) %0, ptr noundef %1) local_unnamed_addr #0 align 2 {
  %3 = getelementptr inbounds i8, ptr %0, i64 2408
  %4 = load ptr, ptr %3, align 8
  %5 = getelementptr inbounds i8, ptr %1, i64 16
  %6 = load ptr, ptr %5, align 8
  %7 = getelementptr inbounds i8, ptr %1, i64 32
  %8 = load i32, ptr %7, align 8
  %9 = zext i32 %8 to i64
  %10 = getelementptr inbounds ptr, ptr %6, i64 %9
  %.not.i = icmp eq i32 %8, 0
  br i1 %.not.i, label %._crit_edge, label %.lr.ph.i

.lr.ph.i:                                         ; preds = %2
  %11 = getelementptr inbounds i8, ptr %4, i64 32
  %12 = getelementptr inbounds i8, ptr %4, i64 40
  %13 = getelementptr inbounds i8, ptr %4, i64 24
  %14 = getelementptr inbounds i8, ptr %4, i64 8
  %15 = getelementptr inbounds i8, ptr %4, i64 16
  br label %16

16:                                               ; preds = %_ZN16Unique_Node_List4pushEP4Node.exit.i, %.lr.ph.i
  %.06.i = phi ptr [ %6, %.lr.ph.i ], [ %39, %_ZN16Unique_Node_List4pushEP4Node.exit.i ]
  %17 = load ptr, ptr %.06.i, align 8
  %18 = getelementptr inbounds i8, ptr %17, i64 40
  %19 = load i32, ptr %18, align 8
  %20 = lshr i32 %19, 5
  %21 = load i32, ptr %11, align 8
  %.not.i.i.i = icmp ult i32 %20, %21
  br i1 %.not.i.i.i, label %_ZN9VectorSet8test_setEj.exit.i.i, label %22

22:                                               ; preds = %16
  tail call void @_ZN9VectorSet4growEj(ptr noundef nonnull align 8 dereferenceable(32) %11, i32 noundef %20) #16
  br label %_ZN9VectorSet8test_setEj.exit.i.i

_ZN9VectorSet8test_setEj.exit.i.i:                ; preds = %22, %16
  %23 = and i32 %19, 31
  %24 = shl nuw i32 1, %23
  %25 = load ptr, ptr %12, align 8
  %26 = zext nneg i32 %20 to i64
  %27 = getelementptr inbounds i32, ptr %25, i64 %26
  %28 = load i32, ptr %27, align 4
  %29 = or i32 %28, %24
  store i32 %29, ptr %27, align 4
  %30 = and i32 %28, %24
  %.not.i.i = icmp eq i32 %30, 0
  br i1 %.not.i.i, label %31, label %_ZN16Unique_Node_List4pushEP4Node.exit.i

31:                                               ; preds = %_ZN9VectorSet8test_setEj.exit.i.i
  %32 = load i32, ptr %13, align 8
  %33 = add i32 %32, 1
  store i32 %33, ptr %13, align 8
  %34 = load i32, ptr %14, align 8
  %.not.i.i.i.i = icmp ugt i32 %34, %32
  br i1 %.not.i.i.i.i, label %_ZN9Node_List4pushEP4Node.exit.i.i, label %35

35:                                               ; preds = %31
  tail call void @_ZN10Node_Array4growEj(ptr noundef nonnull align 8 dereferenceable(24) %4, i32 noundef %32) #16
  br label %_ZN9Node_List4pushEP4Node.exit.i.i

_ZN9Node_List4pushEP4Node.exit.i.i:               ; preds = %35, %31
  %36 = load ptr, ptr %15, align 8
  %37 = zext i32 %32 to i64
  %38 = getelementptr inbounds ptr, ptr %36, i64 %37
  store ptr %17, ptr %38, align 8
  br label %_ZN16Unique_Node_List4pushEP4Node.exit.i

_ZN16Unique_Node_List4pushEP4Node.exit.i:         ; preds = %_ZN9Node_List4pushEP4Node.exit.i.i, %_ZN9VectorSet8test_setEj.exit.i.i
  %39 = getelementptr inbounds i8, ptr %.06.i, i64 8
  %40 = icmp ult ptr %39, %10
  br i1 %40, label %16, label %_ZN12PhaseIterGVN22add_users_to_worklist0EP4NodeR16Unique_Node_List.exit, !llvm.loop !22

_ZN12PhaseIterGVN22add_users_to_worklist0EP4NodeR16Unique_Node_List.exit: ; preds = %_ZN16Unique_Node_List4pushEP4Node.exit.i
  %.pre = load ptr, ptr %3, align 8
  %.pre11 = load ptr, ptr %5, align 8
  %.pre12 = load i32, ptr %7, align 8
  %41 = zext i32 %.pre12 to i64
  %42 = getelementptr inbounds ptr, ptr %.pre11, i64 %41
  %.not = icmp eq i32 %.pre12, 0
  br i1 %.not, label %._crit_edge, label %.lr.ph

.lr.ph:                                           ; preds = %_ZN12PhaseIterGVN22add_users_to_worklist0EP4NodeR16Unique_Node_List.exit, %.lr.ph
  %.010 = phi ptr [ %44, %.lr.ph ], [ %.pre11, %_ZN12PhaseIterGVN22add_users_to_worklist0EP4NodeR16Unique_Node_List.exit ]
  %43 = load ptr, ptr %.010, align 8
  tail call void @_ZN12PhaseIterGVN28add_users_of_use_to_worklistEP4NodeS1_R16Unique_Node_List(ptr noundef nonnull %1, ptr noundef %43, ptr noundef nonnull align 8 dereferenceable(68) %.pre)
  %44 = getelementptr inbounds i8, ptr %.010, i64 8
  %45 = icmp ult ptr %44, %42
  br i1 %45, label %.lr.ph, label %._crit_edge, !llvm.loop !23

._crit_edge:                                      ; preds = %.lr.ph, %2, %_ZN12PhaseIterGVN22add_users_to_worklist0EP4NodeR16Unique_Node_List.exit
  ret void
}